
random.elf:     file format elf32-littleriscv


Disassembly of section .text:

00000000 <_start>:
   0:	00010137          	lui	sp,0x10
   4:	580000ef          	jal	584 <main>

00000008 <read>:
   8:	fffff537          	lui	a0,0xfffff
   c:	07050513          	addi	a0,a0,112 # fffff070 <edata+0xffffe070>
  10:	00052503          	lw	a0,0(a0)
  14:	00008067          	ret

00000018 <write>:
  18:	01055793          	srli	a5,a0,0x10
  1c:	ff678713          	addi	a4,a5,-10
  20:	01071713          	slli	a4,a4,0x10
  24:	01075713          	srli	a4,a4,0x10
  28:	00500693          	li	a3,5
  2c:	00e6e463          	bltu	a3,a4,34 <write+0x1c>
  30:	01076793          	ori	a5,a4,16
  34:	01051513          	slli	a0,a0,0x10
  38:	01079793          	slli	a5,a5,0x10
  3c:	01055513          	srli	a0,a0,0x10
  40:	00f56533          	or	a0,a0,a5
  44:	fffff7b7          	lui	a5,0xfffff
  48:	00a7a023          	sw	a0,0(a5) # fffff000 <edata+0xffffe000>
  4c:	00008067          	ret

00000050 <decimal>:
  50:	00f57513          	andi	a0,a0,15
  54:	00008067          	ret

00000058 <integer>:
  58:	00455513          	srli	a0,a0,0x4
  5c:	00f57513          	andi	a0,a0,15
  60:	00008067          	ret

00000064 <add>:
  64:	00855793          	srli	a5,a0,0x8
  68:	0ff7f793          	zext.b	a5,a5
  6c:	0ff57513          	zext.b	a0,a0
  70:	00f7f693          	andi	a3,a5,15
  74:	00f57613          	andi	a2,a0,15
  78:	00455713          	srli	a4,a0,0x4
  7c:	0047d793          	srli	a5,a5,0x4
  80:	00c68533          	add	a0,a3,a2
  84:	00900693          	li	a3,9
  88:	00e787b3          	add	a5,a5,a4
  8c:	00a6fa63          	bgeu	a3,a0,a0 <add+0x3c>
  90:	ff650513          	addi	a0,a0,-10
  94:	01051513          	slli	a0,a0,0x10
  98:	00178793          	addi	a5,a5,1
  9c:	01055513          	srli	a0,a0,0x10
  a0:	01079793          	slli	a5,a5,0x10
  a4:	00f56533          	or	a0,a0,a5
  a8:	00008067          	ret

000000ac <sub>:
  ac:	00855693          	srli	a3,a0,0x8
  b0:	0ff6f693          	zext.b	a3,a3
  b4:	0ff57593          	zext.b	a1,a0
  b8:	0046d713          	srli	a4,a3,0x4
  bc:	00f6f793          	andi	a5,a3,15
  c0:	00f57513          	andi	a0,a0,15
  c4:	0045d613          	srli	a2,a1,0x4
  c8:	00b6fe63          	bgeu	a3,a1,e4 <sub+0x38>
  cc:	00078593          	mv	a1,a5
  d0:	00070693          	mv	a3,a4
  d4:	00050793          	mv	a5,a0
  d8:	00060713          	mv	a4,a2
  dc:	00058513          	mv	a0,a1
  e0:	00068613          	mv	a2,a3
  e4:	40a78533          	sub	a0,a5,a0
  e8:	40c70733          	sub	a4,a4,a2
  ec:	01051513          	slli	a0,a0,0x10
  f0:	01071713          	slli	a4,a4,0x10
  f4:	01055513          	srli	a0,a0,0x10
  f8:	00900793          	li	a5,9
  fc:	01075713          	srli	a4,a4,0x10
 100:	00a7e863          	bltu	a5,a0,110 <sub+0x64>
 104:	01071713          	slli	a4,a4,0x10
 108:	00e56533          	or	a0,a0,a4
 10c:	00008067          	ret
 110:	00a50513          	addi	a0,a0,10
 114:	fff70713          	addi	a4,a4,-1
 118:	01051513          	slli	a0,a0,0x10
 11c:	01071713          	slli	a4,a4,0x10
 120:	01055513          	srli	a0,a0,0x10
 124:	00e56533          	or	a0,a0,a4
 128:	00008067          	ret

0000012c <mul>:
 12c:	00855793          	srli	a5,a0,0x8
 130:	0ff57513          	zext.b	a0,a0
 134:	0ff7f793          	zext.b	a5,a5
 138:	00455613          	srli	a2,a0,0x4
 13c:	0047d513          	srli	a0,a5,0x4
 140:	00f7f793          	andi	a5,a5,15
 144:	2c060863          	beqz	a2,414 <mul+0x2e8>
 148:	00179793          	slli	a5,a5,0x1
 14c:	00900713          	li	a4,9
 150:	00151513          	slli	a0,a0,0x1
 154:	2cf76663          	bltu	a4,a5,420 <mul+0x2f4>
 158:	00100713          	li	a4,1
 15c:	2ae60c63          	beq	a2,a4,414 <mul+0x2e8>
 160:	00179793          	slli	a5,a5,0x1
 164:	00151693          	slli	a3,a0,0x1
 168:	01079793          	slli	a5,a5,0x10
 16c:	01069513          	slli	a0,a3,0x10
 170:	0107d793          	srli	a5,a5,0x10
 174:	00900713          	li	a4,9
 178:	01055513          	srli	a0,a0,0x10
 17c:	2af76c63          	bltu	a4,a5,434 <mul+0x308>
 180:	00200713          	li	a4,2
 184:	28e60863          	beq	a2,a4,414 <mul+0x2e8>
 188:	00179793          	slli	a5,a5,0x1
 18c:	00151513          	slli	a0,a0,0x1
 190:	01079793          	slli	a5,a5,0x10
 194:	01051513          	slli	a0,a0,0x10
 198:	0107d793          	srli	a5,a5,0x10
 19c:	00900713          	li	a4,9
 1a0:	01055513          	srli	a0,a0,0x10
 1a4:	2af76663          	bltu	a4,a5,450 <mul+0x324>
 1a8:	00300713          	li	a4,3
 1ac:	26e60463          	beq	a2,a4,414 <mul+0x2e8>
 1b0:	00179793          	slli	a5,a5,0x1
 1b4:	00151513          	slli	a0,a0,0x1
 1b8:	01079793          	slli	a5,a5,0x10
 1bc:	01051513          	slli	a0,a0,0x10
 1c0:	0107d793          	srli	a5,a5,0x10
 1c4:	00900713          	li	a4,9
 1c8:	01055513          	srli	a0,a0,0x10
 1cc:	2af76063          	bltu	a4,a5,46c <mul+0x340>
 1d0:	00400713          	li	a4,4
 1d4:	24e60063          	beq	a2,a4,414 <mul+0x2e8>
 1d8:	00179793          	slli	a5,a5,0x1
 1dc:	00151513          	slli	a0,a0,0x1
 1e0:	01079793          	slli	a5,a5,0x10
 1e4:	01051513          	slli	a0,a0,0x10
 1e8:	0107d793          	srli	a5,a5,0x10
 1ec:	00900713          	li	a4,9
 1f0:	01055513          	srli	a0,a0,0x10
 1f4:	00f77e63          	bgeu	a4,a5,210 <mul+0xe4>
 1f8:	00150513          	addi	a0,a0,1
 1fc:	ff678793          	addi	a5,a5,-10
 200:	01051513          	slli	a0,a0,0x10
 204:	01079793          	slli	a5,a5,0x10
 208:	01055513          	srli	a0,a0,0x10
 20c:	0107d793          	srli	a5,a5,0x10
 210:	00500713          	li	a4,5
 214:	20e60063          	beq	a2,a4,414 <mul+0x2e8>
 218:	00179793          	slli	a5,a5,0x1
 21c:	00151513          	slli	a0,a0,0x1
 220:	01079793          	slli	a5,a5,0x10
 224:	01051513          	slli	a0,a0,0x10
 228:	0107d793          	srli	a5,a5,0x10
 22c:	00900713          	li	a4,9
 230:	01055513          	srli	a0,a0,0x10
 234:	00f77e63          	bgeu	a4,a5,250 <mul+0x124>
 238:	00150513          	addi	a0,a0,1
 23c:	ff678793          	addi	a5,a5,-10
 240:	01051513          	slli	a0,a0,0x10
 244:	01079793          	slli	a5,a5,0x10
 248:	01055513          	srli	a0,a0,0x10
 24c:	0107d793          	srli	a5,a5,0x10
 250:	00600713          	li	a4,6
 254:	1ce60063          	beq	a2,a4,414 <mul+0x2e8>
 258:	00179793          	slli	a5,a5,0x1
 25c:	00151513          	slli	a0,a0,0x1
 260:	01079793          	slli	a5,a5,0x10
 264:	01051513          	slli	a0,a0,0x10
 268:	0107d793          	srli	a5,a5,0x10
 26c:	00900713          	li	a4,9
 270:	01055513          	srli	a0,a0,0x10
 274:	00f77e63          	bgeu	a4,a5,290 <mul+0x164>
 278:	00150513          	addi	a0,a0,1
 27c:	ff678793          	addi	a5,a5,-10
 280:	01051513          	slli	a0,a0,0x10
 284:	01079793          	slli	a5,a5,0x10
 288:	01055513          	srli	a0,a0,0x10
 28c:	0107d793          	srli	a5,a5,0x10
 290:	00700713          	li	a4,7
 294:	18e60063          	beq	a2,a4,414 <mul+0x2e8>
 298:	00179793          	slli	a5,a5,0x1
 29c:	00151513          	slli	a0,a0,0x1
 2a0:	01079793          	slli	a5,a5,0x10
 2a4:	01051513          	slli	a0,a0,0x10
 2a8:	0107d793          	srli	a5,a5,0x10
 2ac:	00900713          	li	a4,9
 2b0:	01055513          	srli	a0,a0,0x10
 2b4:	1cf76a63          	bltu	a4,a5,488 <mul+0x35c>
 2b8:	00800713          	li	a4,8
 2bc:	14e60c63          	beq	a2,a4,414 <mul+0x2e8>
 2c0:	00179793          	slli	a5,a5,0x1
 2c4:	00151513          	slli	a0,a0,0x1
 2c8:	01079793          	slli	a5,a5,0x10
 2cc:	01051513          	slli	a0,a0,0x10
 2d0:	0107d793          	srli	a5,a5,0x10
 2d4:	00900713          	li	a4,9
 2d8:	01055513          	srli	a0,a0,0x10
 2dc:	1cf76463          	bltu	a4,a5,4a4 <mul+0x378>
 2e0:	00900713          	li	a4,9
 2e4:	12e60863          	beq	a2,a4,414 <mul+0x2e8>
 2e8:	00179793          	slli	a5,a5,0x1
 2ec:	00151513          	slli	a0,a0,0x1
 2f0:	01079793          	slli	a5,a5,0x10
 2f4:	01051513          	slli	a0,a0,0x10
 2f8:	0107d793          	srli	a5,a5,0x10
 2fc:	01055513          	srli	a0,a0,0x10
 300:	1cf76063          	bltu	a4,a5,4c0 <mul+0x394>
 304:	00a00713          	li	a4,10
 308:	10e60663          	beq	a2,a4,414 <mul+0x2e8>
 30c:	00179793          	slli	a5,a5,0x1
 310:	00151513          	slli	a0,a0,0x1
 314:	01079793          	slli	a5,a5,0x10
 318:	01051513          	slli	a0,a0,0x10
 31c:	0107d793          	srli	a5,a5,0x10
 320:	00900713          	li	a4,9
 324:	01055513          	srli	a0,a0,0x10
 328:	1af76a63          	bltu	a4,a5,4dc <mul+0x3b0>
 32c:	00b00713          	li	a4,11
 330:	0ee60263          	beq	a2,a4,414 <mul+0x2e8>
 334:	00179793          	slli	a5,a5,0x1
 338:	00151513          	slli	a0,a0,0x1
 33c:	01079793          	slli	a5,a5,0x10
 340:	01051513          	slli	a0,a0,0x10
 344:	0107d793          	srli	a5,a5,0x10
 348:	00900713          	li	a4,9
 34c:	01055513          	srli	a0,a0,0x10
 350:	1af76463          	bltu	a4,a5,4f8 <mul+0x3cc>
 354:	00c00713          	li	a4,12
 358:	0ae60e63          	beq	a2,a4,414 <mul+0x2e8>
 35c:	00179793          	slli	a5,a5,0x1
 360:	00151513          	slli	a0,a0,0x1
 364:	01079793          	slli	a5,a5,0x10
 368:	01051513          	slli	a0,a0,0x10
 36c:	0107d793          	srli	a5,a5,0x10
 370:	00900713          	li	a4,9
 374:	01055513          	srli	a0,a0,0x10
 378:	00f77e63          	bgeu	a4,a5,394 <mul+0x268>
 37c:	00150513          	addi	a0,a0,1
 380:	ff678793          	addi	a5,a5,-10
 384:	01051513          	slli	a0,a0,0x10
 388:	01079793          	slli	a5,a5,0x10
 38c:	01055513          	srli	a0,a0,0x10
 390:	0107d793          	srli	a5,a5,0x10
 394:	00d00713          	li	a4,13
 398:	06e60e63          	beq	a2,a4,414 <mul+0x2e8>
 39c:	00179793          	slli	a5,a5,0x1
 3a0:	00151513          	slli	a0,a0,0x1
 3a4:	01079793          	slli	a5,a5,0x10
 3a8:	01051513          	slli	a0,a0,0x10
 3ac:	0107d793          	srli	a5,a5,0x10
 3b0:	00900713          	li	a4,9
 3b4:	01055513          	srli	a0,a0,0x10
 3b8:	00f77e63          	bgeu	a4,a5,3d4 <mul+0x2a8>
 3bc:	00150513          	addi	a0,a0,1
 3c0:	ff678793          	addi	a5,a5,-10
 3c4:	01051513          	slli	a0,a0,0x10
 3c8:	01079793          	slli	a5,a5,0x10
 3cc:	01055513          	srli	a0,a0,0x10
 3d0:	0107d793          	srli	a5,a5,0x10
 3d4:	00f00713          	li	a4,15
 3d8:	02e61e63          	bne	a2,a4,414 <mul+0x2e8>
 3dc:	00179793          	slli	a5,a5,0x1
 3e0:	00151513          	slli	a0,a0,0x1
 3e4:	01079793          	slli	a5,a5,0x10
 3e8:	01051513          	slli	a0,a0,0x10
 3ec:	0107d793          	srli	a5,a5,0x10
 3f0:	00900713          	li	a4,9
 3f4:	01055513          	srli	a0,a0,0x10
 3f8:	00f77e63          	bgeu	a4,a5,414 <mul+0x2e8>
 3fc:	00150513          	addi	a0,a0,1
 400:	ff678793          	addi	a5,a5,-10
 404:	01051513          	slli	a0,a0,0x10
 408:	01079793          	slli	a5,a5,0x10
 40c:	01055513          	srli	a0,a0,0x10
 410:	0107d793          	srli	a5,a5,0x10
 414:	01051513          	slli	a0,a0,0x10
 418:	00a7e533          	or	a0,a5,a0
 41c:	00008067          	ret
 420:	ff678793          	addi	a5,a5,-10
 424:	01079793          	slli	a5,a5,0x10
 428:	00150513          	addi	a0,a0,1
 42c:	0107d793          	srli	a5,a5,0x10
 430:	d29ff06f          	j	158 <mul+0x2c>
 434:	00150513          	addi	a0,a0,1
 438:	ff678793          	addi	a5,a5,-10
 43c:	01051513          	slli	a0,a0,0x10
 440:	01079793          	slli	a5,a5,0x10
 444:	01055513          	srli	a0,a0,0x10
 448:	0107d793          	srli	a5,a5,0x10
 44c:	d35ff06f          	j	180 <mul+0x54>
 450:	00150513          	addi	a0,a0,1
 454:	ff678793          	addi	a5,a5,-10
 458:	01051513          	slli	a0,a0,0x10
 45c:	01079793          	slli	a5,a5,0x10
 460:	01055513          	srli	a0,a0,0x10
 464:	0107d793          	srli	a5,a5,0x10
 468:	d41ff06f          	j	1a8 <mul+0x7c>
 46c:	00150513          	addi	a0,a0,1
 470:	ff678793          	addi	a5,a5,-10
 474:	01051513          	slli	a0,a0,0x10
 478:	01079793          	slli	a5,a5,0x10
 47c:	01055513          	srli	a0,a0,0x10
 480:	0107d793          	srli	a5,a5,0x10
 484:	d4dff06f          	j	1d0 <mul+0xa4>
 488:	00150513          	addi	a0,a0,1
 48c:	ff678793          	addi	a5,a5,-10
 490:	01051513          	slli	a0,a0,0x10
 494:	01079793          	slli	a5,a5,0x10
 498:	01055513          	srli	a0,a0,0x10
 49c:	0107d793          	srli	a5,a5,0x10
 4a0:	e19ff06f          	j	2b8 <mul+0x18c>
 4a4:	00150513          	addi	a0,a0,1
 4a8:	ff678793          	addi	a5,a5,-10
 4ac:	01051513          	slli	a0,a0,0x10
 4b0:	01079793          	slli	a5,a5,0x10
 4b4:	01055513          	srli	a0,a0,0x10
 4b8:	0107d793          	srli	a5,a5,0x10
 4bc:	e25ff06f          	j	2e0 <mul+0x1b4>
 4c0:	00150513          	addi	a0,a0,1
 4c4:	ff678793          	addi	a5,a5,-10
 4c8:	01051513          	slli	a0,a0,0x10
 4cc:	01079793          	slli	a5,a5,0x10
 4d0:	01055513          	srli	a0,a0,0x10
 4d4:	0107d793          	srli	a5,a5,0x10
 4d8:	e2dff06f          	j	304 <mul+0x1d8>
 4dc:	00150513          	addi	a0,a0,1
 4e0:	ff678793          	addi	a5,a5,-10
 4e4:	01051513          	slli	a0,a0,0x10
 4e8:	01079793          	slli	a5,a5,0x10
 4ec:	01055513          	srli	a0,a0,0x10
 4f0:	0107d793          	srli	a5,a5,0x10
 4f4:	e39ff06f          	j	32c <mul+0x200>
 4f8:	00150513          	addi	a0,a0,1
 4fc:	ff678793          	addi	a5,a5,-10
 500:	01051513          	slli	a0,a0,0x10
 504:	01079793          	slli	a5,a5,0x10
 508:	01055513          	srli	a0,a0,0x10
 50c:	0107d793          	srli	a5,a5,0x10
 510:	e45ff06f          	j	354 <mul+0x228>

00000514 <div>:
 514:	00855713          	srli	a4,a0,0x8
 518:	0ff57513          	zext.b	a0,a0
 51c:	00455793          	srli	a5,a0,0x4
 520:	0ff77693          	zext.b	a3,a4
 524:	00f77713          	andi	a4,a4,15
 528:	0046d513          	srli	a0,a3,0x4
 52c:	40f75733          	sra	a4,a4,a5
 530:	40f55533          	sra	a0,a0,a5
 534:	01071713          	slli	a4,a4,0x10
 538:	01075713          	srli	a4,a4,0x10
 53c:	01051513          	slli	a0,a0,0x10
 540:	00a76533          	or	a0,a4,a0
 544:	00008067          	ret

00000548 <lfsr32>:
 548:	000187b7          	lui	a5,0x18
 54c:	6a078793          	addi	a5,a5,1696 # 186a0 <edata+0x176a0>
 550:	00000033          	add	zero,zero,zero
 554:	fff78793          	addi	a5,a5,-1
 558:	fe079ce3          	bnez	a5,550 <lfsr32+0x8>
 55c:	00355713          	srli	a4,a0,0x3
 560:	00255793          	srli	a5,a0,0x2
 564:	00e7c7b3          	xor	a5,a5,a4
 568:	00a7c7b3          	xor	a5,a5,a0
 56c:	00555713          	srli	a4,a0,0x5
 570:	00e7c7b3          	xor	a5,a5,a4
 574:	01f79793          	slli	a5,a5,0x1f
 578:	00155513          	srli	a0,a0,0x1
 57c:	00f56533          	or	a0,a0,a5
 580:	00008067          	ret

Disassembly of section .text.startup:

00000584 <main>:
 584:	fec10113          	addi	sp,sp,-20 # ffec <edata+0xefec>
 588:	00112823          	sw	ra,16(sp)
 58c:	072102b7          	lui	t0,0x7210
 590:	fffff3b7          	lui	t2,0xfffff
 594:	000010b7          	lui	ra,0x1
 598:	000105b7          	lui	a1,0x10
 59c:	00812623          	sw	s0,12(sp)
 5a0:	00912423          	sw	s1,8(sp)
 5a4:	48728293          	addi	t0,t0,1159 # 7210487 <edata+0x720f487>
 5a8:	acc08093          	addi	ra,ra,-1332 # acc <main+0x548>
 5ac:	07038393          	addi	t2,t2,112 # fffff070 <edata+0xffffe070>
 5b0:	00500613          	li	a2,5
 5b4:	fff58593          	addi	a1,a1,-1 # ffff <edata+0xefff>
 5b8:	00900313          	li	t1,9
 5bc:	0003a703          	lw	a4,0(t2)
 5c0:	01575693          	srli	a3,a4,0x15
 5c4:	00875793          	srli	a5,a4,0x8
 5c8:	0076f693          	andi	a3,a3,7
 5cc:	0ff77713          	zext.b	a4,a4
 5d0:	0ff7f793          	zext.b	a5,a5
 5d4:	08d66263          	bltu	a2,a3,658 <main+0xd4>
 5d8:	00269693          	slli	a3,a3,0x2
 5dc:	00d086b3          	add	a3,ra,a3
 5e0:	0006a683          	lw	a3,0(a3)
 5e4:	00068067          	jr	a3
 5e8:	000187b7          	lui	a5,0x18
 5ec:	6a078793          	addi	a5,a5,1696 # 186a0 <edata+0x176a0>
 5f0:	00000033          	add	zero,zero,zero
 5f4:	fff78793          	addi	a5,a5,-1
 5f8:	fe079ce3          	bnez	a5,5f0 <main+0x6c>
 5fc:	0032d713          	srli	a4,t0,0x3
 600:	0022d793          	srli	a5,t0,0x2
 604:	00e7c7b3          	xor	a5,a5,a4
 608:	0057c7b3          	xor	a5,a5,t0
 60c:	0052d713          	srli	a4,t0,0x5
 610:	00e7c7b3          	xor	a5,a5,a4
 614:	0012d293          	srli	t0,t0,0x1
 618:	01f79793          	slli	a5,a5,0x1f
 61c:	0057e7b3          	or	a5,a5,t0
 620:	00f12223          	sw	a5,4(sp)
 624:	00412283          	lw	t0,4(sp)
 628:	0300006f          	j	658 <main+0xd4>
 62c:	00475693          	srli	a3,a4,0x4
 630:	00f7f713          	andi	a4,a5,15
 634:	40d75733          	sra	a4,a4,a3
 638:	0047d793          	srli	a5,a5,0x4
 63c:	01071713          	slli	a4,a4,0x10
 640:	01075713          	srli	a4,a4,0x10
 644:	40d7d7b3          	sra	a5,a5,a3
 648:	01079793          	slli	a5,a5,0x10
 64c:	00b77733          	and	a4,a4,a1
 650:	00f767b3          	or	a5,a4,a5
 654:	00f12223          	sw	a5,4(sp)
 658:	00412783          	lw	a5,4(sp)
 65c:	0107d713          	srli	a4,a5,0x10
 660:	ff670693          	addi	a3,a4,-10
 664:	01069693          	slli	a3,a3,0x10
 668:	0106d693          	srli	a3,a3,0x10
 66c:	00d66463          	bltu	a2,a3,674 <main+0xf0>
 670:	0106e713          	ori	a4,a3,16
 674:	01071713          	slli	a4,a4,0x10
 678:	00b7f7b3          	and	a5,a5,a1
 67c:	00e7e7b3          	or	a5,a5,a4
 680:	fffff737          	lui	a4,0xfffff
 684:	00f72023          	sw	a5,0(a4) # fffff000 <edata+0xffffe000>
 688:	f35ff06f          	j	5bc <main+0x38>
 68c:	00475713          	srli	a4,a4,0x4
 690:	0047d693          	srli	a3,a5,0x4
 694:	00f7f793          	andi	a5,a5,15
 698:	36070063          	beqz	a4,9f8 <main+0x474>
 69c:	00179793          	slli	a5,a5,0x1
 6a0:	00169693          	slli	a3,a3,0x1
 6a4:	00f37a63          	bgeu	t1,a5,6b8 <main+0x134>
 6a8:	ff678793          	addi	a5,a5,-10
 6ac:	01079793          	slli	a5,a5,0x10
 6b0:	00168693          	addi	a3,a3,1
 6b4:	0107d793          	srli	a5,a5,0x10
 6b8:	00100513          	li	a0,1
 6bc:	32a70e63          	beq	a4,a0,9f8 <main+0x474>
 6c0:	00179793          	slli	a5,a5,0x1
 6c4:	00169693          	slli	a3,a3,0x1
 6c8:	01079793          	slli	a5,a5,0x10
 6cc:	01069693          	slli	a3,a3,0x10
 6d0:	0107d793          	srli	a5,a5,0x10
 6d4:	0106d693          	srli	a3,a3,0x10
 6d8:	00f37e63          	bgeu	t1,a5,6f4 <main+0x170>
 6dc:	00168693          	addi	a3,a3,1
 6e0:	ff678793          	addi	a5,a5,-10
 6e4:	01069693          	slli	a3,a3,0x10
 6e8:	01079793          	slli	a5,a5,0x10
 6ec:	0106d693          	srli	a3,a3,0x10
 6f0:	0107d793          	srli	a5,a5,0x10
 6f4:	00200513          	li	a0,2
 6f8:	30a70063          	beq	a4,a0,9f8 <main+0x474>
 6fc:	00179793          	slli	a5,a5,0x1
 700:	00169693          	slli	a3,a3,0x1
 704:	01079793          	slli	a5,a5,0x10
 708:	01069693          	slli	a3,a3,0x10
 70c:	0107d793          	srli	a5,a5,0x10
 710:	0106d693          	srli	a3,a3,0x10
 714:	00f37e63          	bgeu	t1,a5,730 <main+0x1ac>
 718:	00168693          	addi	a3,a3,1
 71c:	ff678793          	addi	a5,a5,-10
 720:	01069693          	slli	a3,a3,0x10
 724:	01079793          	slli	a5,a5,0x10
 728:	0106d693          	srli	a3,a3,0x10
 72c:	0107d793          	srli	a5,a5,0x10
 730:	00300513          	li	a0,3
 734:	2ca70263          	beq	a4,a0,9f8 <main+0x474>
 738:	00179793          	slli	a5,a5,0x1
 73c:	00169693          	slli	a3,a3,0x1
 740:	01079793          	slli	a5,a5,0x10
 744:	01069693          	slli	a3,a3,0x10
 748:	0107d793          	srli	a5,a5,0x10
 74c:	0106d693          	srli	a3,a3,0x10
 750:	00f37e63          	bgeu	t1,a5,76c <main+0x1e8>
 754:	00168693          	addi	a3,a3,1
 758:	ff678793          	addi	a5,a5,-10
 75c:	01069693          	slli	a3,a3,0x10
 760:	01079793          	slli	a5,a5,0x10
 764:	0106d693          	srli	a3,a3,0x10
 768:	0107d793          	srli	a5,a5,0x10
 76c:	00400513          	li	a0,4
 770:	28a70463          	beq	a4,a0,9f8 <main+0x474>
 774:	00179793          	slli	a5,a5,0x1
 778:	00169693          	slli	a3,a3,0x1
 77c:	01079793          	slli	a5,a5,0x10
 780:	01069693          	slli	a3,a3,0x10
 784:	0107d793          	srli	a5,a5,0x10
 788:	0106d693          	srli	a3,a3,0x10
 78c:	00f37e63          	bgeu	t1,a5,7a8 <main+0x224>
 790:	00168693          	addi	a3,a3,1
 794:	ff678793          	addi	a5,a5,-10
 798:	01069693          	slli	a3,a3,0x10
 79c:	01079793          	slli	a5,a5,0x10
 7a0:	0106d693          	srli	a3,a3,0x10
 7a4:	0107d793          	srli	a5,a5,0x10
 7a8:	24c70863          	beq	a4,a2,9f8 <main+0x474>
 7ac:	00179793          	slli	a5,a5,0x1
 7b0:	00169693          	slli	a3,a3,0x1
 7b4:	01079793          	slli	a5,a5,0x10
 7b8:	01069693          	slli	a3,a3,0x10
 7bc:	0107d793          	srli	a5,a5,0x10
 7c0:	0106d693          	srli	a3,a3,0x10
 7c4:	00f37e63          	bgeu	t1,a5,7e0 <main+0x25c>
 7c8:	00168693          	addi	a3,a3,1
 7cc:	ff678793          	addi	a5,a5,-10
 7d0:	01069693          	slli	a3,a3,0x10
 7d4:	01079793          	slli	a5,a5,0x10
 7d8:	0106d693          	srli	a3,a3,0x10
 7dc:	0107d793          	srli	a5,a5,0x10
 7e0:	00600513          	li	a0,6
 7e4:	20a70a63          	beq	a4,a0,9f8 <main+0x474>
 7e8:	00179793          	slli	a5,a5,0x1
 7ec:	00169693          	slli	a3,a3,0x1
 7f0:	01079793          	slli	a5,a5,0x10
 7f4:	01069693          	slli	a3,a3,0x10
 7f8:	0107d793          	srli	a5,a5,0x10
 7fc:	0106d693          	srli	a3,a3,0x10
 800:	00f37e63          	bgeu	t1,a5,81c <main+0x298>
 804:	00168693          	addi	a3,a3,1
 808:	ff678793          	addi	a5,a5,-10
 80c:	01069693          	slli	a3,a3,0x10
 810:	01079793          	slli	a5,a5,0x10
 814:	0106d693          	srli	a3,a3,0x10
 818:	0107d793          	srli	a5,a5,0x10
 81c:	00700513          	li	a0,7
 820:	1ca70c63          	beq	a4,a0,9f8 <main+0x474>
 824:	00179793          	slli	a5,a5,0x1
 828:	00169693          	slli	a3,a3,0x1
 82c:	01079793          	slli	a5,a5,0x10
 830:	01069693          	slli	a3,a3,0x10
 834:	0107d793          	srli	a5,a5,0x10
 838:	0106d693          	srli	a3,a3,0x10
 83c:	00f37e63          	bgeu	t1,a5,858 <main+0x2d4>
 840:	00168693          	addi	a3,a3,1
 844:	ff678793          	addi	a5,a5,-10
 848:	01069693          	slli	a3,a3,0x10
 84c:	01079793          	slli	a5,a5,0x10
 850:	0106d693          	srli	a3,a3,0x10
 854:	0107d793          	srli	a5,a5,0x10
 858:	00800513          	li	a0,8
 85c:	18a70e63          	beq	a4,a0,9f8 <main+0x474>
 860:	00179793          	slli	a5,a5,0x1
 864:	00169693          	slli	a3,a3,0x1
 868:	01079793          	slli	a5,a5,0x10
 86c:	01069693          	slli	a3,a3,0x10
 870:	0107d793          	srli	a5,a5,0x10
 874:	0106d693          	srli	a3,a3,0x10
 878:	00f37e63          	bgeu	t1,a5,894 <main+0x310>
 87c:	00168693          	addi	a3,a3,1
 880:	ff678793          	addi	a5,a5,-10
 884:	01069693          	slli	a3,a3,0x10
 888:	01079793          	slli	a5,a5,0x10
 88c:	0106d693          	srli	a3,a3,0x10
 890:	0107d793          	srli	a5,a5,0x10
 894:	16670263          	beq	a4,t1,9f8 <main+0x474>
 898:	00179793          	slli	a5,a5,0x1
 89c:	00169693          	slli	a3,a3,0x1
 8a0:	01079793          	slli	a5,a5,0x10
 8a4:	01069693          	slli	a3,a3,0x10
 8a8:	0107d793          	srli	a5,a5,0x10
 8ac:	0106d693          	srli	a3,a3,0x10
 8b0:	00f37e63          	bgeu	t1,a5,8cc <main+0x348>
 8b4:	00168693          	addi	a3,a3,1
 8b8:	ff678793          	addi	a5,a5,-10
 8bc:	01069693          	slli	a3,a3,0x10
 8c0:	01079793          	slli	a5,a5,0x10
 8c4:	0106d693          	srli	a3,a3,0x10
 8c8:	0107d793          	srli	a5,a5,0x10
 8cc:	00a00513          	li	a0,10
 8d0:	12a70463          	beq	a4,a0,9f8 <main+0x474>
 8d4:	00179793          	slli	a5,a5,0x1
 8d8:	00169693          	slli	a3,a3,0x1
 8dc:	01079793          	slli	a5,a5,0x10
 8e0:	01069693          	slli	a3,a3,0x10
 8e4:	0107d793          	srli	a5,a5,0x10
 8e8:	0106d693          	srli	a3,a3,0x10
 8ec:	00f37e63          	bgeu	t1,a5,908 <main+0x384>
 8f0:	00168693          	addi	a3,a3,1
 8f4:	ff678793          	addi	a5,a5,-10
 8f8:	01069693          	slli	a3,a3,0x10
 8fc:	01079793          	slli	a5,a5,0x10
 900:	0106d693          	srli	a3,a3,0x10
 904:	0107d793          	srli	a5,a5,0x10
 908:	00b00513          	li	a0,11
 90c:	0ea70663          	beq	a4,a0,9f8 <main+0x474>
 910:	00179793          	slli	a5,a5,0x1
 914:	00169693          	slli	a3,a3,0x1
 918:	01079793          	slli	a5,a5,0x10
 91c:	01069693          	slli	a3,a3,0x10
 920:	0107d793          	srli	a5,a5,0x10
 924:	0106d693          	srli	a3,a3,0x10
 928:	00f37e63          	bgeu	t1,a5,944 <main+0x3c0>
 92c:	00168693          	addi	a3,a3,1
 930:	ff678793          	addi	a5,a5,-10
 934:	01069693          	slli	a3,a3,0x10
 938:	01079793          	slli	a5,a5,0x10
 93c:	0106d693          	srli	a3,a3,0x10
 940:	0107d793          	srli	a5,a5,0x10
 944:	00c00513          	li	a0,12
 948:	0aa70863          	beq	a4,a0,9f8 <main+0x474>
 94c:	00179793          	slli	a5,a5,0x1
 950:	00169693          	slli	a3,a3,0x1
 954:	01079793          	slli	a5,a5,0x10
 958:	01069693          	slli	a3,a3,0x10
 95c:	0107d793          	srli	a5,a5,0x10
 960:	0106d693          	srli	a3,a3,0x10
 964:	00f37e63          	bgeu	t1,a5,980 <main+0x3fc>
 968:	00168693          	addi	a3,a3,1
 96c:	ff678793          	addi	a5,a5,-10
 970:	01069693          	slli	a3,a3,0x10
 974:	01079793          	slli	a5,a5,0x10
 978:	0106d693          	srli	a3,a3,0x10
 97c:	0107d793          	srli	a5,a5,0x10
 980:	00d00513          	li	a0,13
 984:	06a70a63          	beq	a4,a0,9f8 <main+0x474>
 988:	00179793          	slli	a5,a5,0x1
 98c:	00169693          	slli	a3,a3,0x1
 990:	01079793          	slli	a5,a5,0x10
 994:	01069693          	slli	a3,a3,0x10
 998:	0107d793          	srli	a5,a5,0x10
 99c:	0106d693          	srli	a3,a3,0x10
 9a0:	00f37e63          	bgeu	t1,a5,9bc <main+0x438>
 9a4:	00168693          	addi	a3,a3,1
 9a8:	ff678793          	addi	a5,a5,-10
 9ac:	01069693          	slli	a3,a3,0x10
 9b0:	01079793          	slli	a5,a5,0x10
 9b4:	0106d693          	srli	a3,a3,0x10
 9b8:	0107d793          	srli	a5,a5,0x10
 9bc:	00f00513          	li	a0,15
 9c0:	02a71c63          	bne	a4,a0,9f8 <main+0x474>
 9c4:	00179793          	slli	a5,a5,0x1
 9c8:	00169693          	slli	a3,a3,0x1
 9cc:	01079793          	slli	a5,a5,0x10
 9d0:	01069693          	slli	a3,a3,0x10
 9d4:	0107d793          	srli	a5,a5,0x10
 9d8:	0106d693          	srli	a3,a3,0x10
 9dc:	00f37e63          	bgeu	t1,a5,9f8 <main+0x474>
 9e0:	00168693          	addi	a3,a3,1
 9e4:	ff678793          	addi	a5,a5,-10
 9e8:	01069693          	slli	a3,a3,0x10
 9ec:	01079793          	slli	a5,a5,0x10
 9f0:	0106d693          	srli	a3,a3,0x10
 9f4:	0107d793          	srli	a5,a5,0x10
 9f8:	ffff0737          	lui	a4,0xffff0
 9fc:	00e47733          	and	a4,s0,a4
 a00:	00f76433          	or	s0,a4,a5
 a04:	01069693          	slli	a3,a3,0x10
 a08:	00b477b3          	and	a5,s0,a1
 a0c:	00d7e433          	or	s0,a5,a3
 a10:	00812223          	sw	s0,4(sp)
 a14:	c45ff06f          	j	658 <main+0xd4>
 a18:	00f7f693          	andi	a3,a5,15
 a1c:	00f77513          	andi	a0,a4,15
 a20:	0047d793          	srli	a5,a5,0x4
 a24:	00475713          	srli	a4,a4,0x4
 a28:	00a686b3          	add	a3,a3,a0
 a2c:	00e787b3          	add	a5,a5,a4
 a30:	00d37a63          	bgeu	t1,a3,a44 <main+0x4c0>
 a34:	ff668693          	addi	a3,a3,-10
 a38:	01069693          	slli	a3,a3,0x10
 a3c:	00178793          	addi	a5,a5,1
 a40:	0106d693          	srli	a3,a3,0x10
 a44:	01079713          	slli	a4,a5,0x10
 a48:	00b6f7b3          	and	a5,a3,a1
 a4c:	00e7e7b3          	or	a5,a5,a4
 a50:	00f12223          	sw	a5,4(sp)
 a54:	c05ff06f          	j	658 <main+0xd4>
 a58:	00475693          	srli	a3,a4,0x4
 a5c:	00d12023          	sw	a3,0(sp)
 a60:	0047d513          	srli	a0,a5,0x4
 a64:	00f77493          	andi	s1,a4,15
 a68:	00f7f693          	andi	a3,a5,15
 a6c:	00e7fe63          	bgeu	a5,a4,a88 <main+0x504>
 a70:	00068793          	mv	a5,a3
 a74:	00050713          	mv	a4,a0
 a78:	00048693          	mv	a3,s1
 a7c:	00012503          	lw	a0,0(sp)
 a80:	00078493          	mv	s1,a5
 a84:	00e12023          	sw	a4,0(sp)
 a88:	00012703          	lw	a4,0(sp)
 a8c:	409687b3          	sub	a5,a3,s1
 a90:	01079793          	slli	a5,a5,0x10
 a94:	40e50733          	sub	a4,a0,a4
 a98:	01071713          	slli	a4,a4,0x10
 a9c:	0107d793          	srli	a5,a5,0x10
 aa0:	01075713          	srli	a4,a4,0x10
 aa4:	00f37a63          	bgeu	t1,a5,ab8 <main+0x534>
 aa8:	00a78793          	addi	a5,a5,10
 aac:	01079793          	slli	a5,a5,0x10
 ab0:	0107d793          	srli	a5,a5,0x10
 ab4:	fff70713          	addi	a4,a4,-1 # fffeffff <edata+0xfffeefff>
 ab8:	01071713          	slli	a4,a4,0x10
 abc:	00b7f7b3          	and	a5,a5,a1
 ac0:	00e7e7b3          	or	a5,a5,a4
 ac4:	00f12223          	sw	a5,4(sp)
 ac8:	b91ff06f          	j	658 <main+0xd4>
