
random.elf:     file format elf32-littleriscv


Disassembly of section .text:

00000000 <_start>:
   0:	00010137          	lui	sp,0x10
   4:	56c000ef          	jal	570 <main>

00000008 <read>:
   8:	fffff537          	lui	a0,0xfffff
   c:	07050513          	addi	a0,a0,112 # fffff070 <edata+0xffffe070>
  10:	00052503          	lw	a0,0(a0)
  14:	00008067          	ret

00000018 <write>:
  18:	01055793          	srli	a5,a0,0x10
  1c:	ff678713          	addi	a4,a5,-10
  20:	01071713          	slli	a4,a4,0x10
  24:	01075713          	srli	a4,a4,0x10
  28:	00500693          	li	a3,5
  2c:	00e6e463          	bltu	a3,a4,34 <write+0x1c>
  30:	01076793          	ori	a5,a4,16
  34:	01051513          	slli	a0,a0,0x10
  38:	01079793          	slli	a5,a5,0x10
  3c:	01055513          	srli	a0,a0,0x10
  40:	00f56533          	or	a0,a0,a5
  44:	fffff7b7          	lui	a5,0xfffff
  48:	00a7a023          	sw	a0,0(a5) # fffff000 <edata+0xffffe000>
  4c:	00008067          	ret

00000050 <decimal>:
  50:	00f57513          	andi	a0,a0,15
  54:	00008067          	ret

00000058 <integer>:
  58:	00455513          	srli	a0,a0,0x4
  5c:	00f57513          	andi	a0,a0,15
  60:	00008067          	ret

00000064 <add>:
  64:	00855793          	srli	a5,a0,0x8
  68:	0ff7f793          	zext.b	a5,a5
  6c:	0ff57513          	zext.b	a0,a0
  70:	00f7f693          	andi	a3,a5,15
  74:	00f57613          	andi	a2,a0,15
  78:	00455713          	srli	a4,a0,0x4
  7c:	0047d793          	srli	a5,a5,0x4
  80:	00c68533          	add	a0,a3,a2
  84:	00900693          	li	a3,9
  88:	00e787b3          	add	a5,a5,a4
  8c:	00a6fa63          	bgeu	a3,a0,a0 <add+0x3c>
  90:	ff650513          	addi	a0,a0,-10
  94:	01051513          	slli	a0,a0,0x10
  98:	00178793          	addi	a5,a5,1
  9c:	01055513          	srli	a0,a0,0x10
  a0:	01079793          	slli	a5,a5,0x10
  a4:	00f56533          	or	a0,a0,a5
  a8:	00008067          	ret

000000ac <sub>:
  ac:	00855693          	srli	a3,a0,0x8
  b0:	0ff6f693          	zext.b	a3,a3
  b4:	0ff57593          	zext.b	a1,a0
  b8:	0046d713          	srli	a4,a3,0x4
  bc:	00f6f793          	andi	a5,a3,15
  c0:	00f57513          	andi	a0,a0,15
  c4:	0045d613          	srli	a2,a1,0x4
  c8:	00b6fe63          	bgeu	a3,a1,e4 <sub+0x38>
  cc:	00078593          	mv	a1,a5
  d0:	00070693          	mv	a3,a4
  d4:	00050793          	mv	a5,a0
  d8:	00060713          	mv	a4,a2
  dc:	00058513          	mv	a0,a1
  e0:	00068613          	mv	a2,a3
  e4:	40a78533          	sub	a0,a5,a0
  e8:	40c70733          	sub	a4,a4,a2
  ec:	01051513          	slli	a0,a0,0x10
  f0:	01071713          	slli	a4,a4,0x10
  f4:	01055513          	srli	a0,a0,0x10
  f8:	00900793          	li	a5,9
  fc:	01075713          	srli	a4,a4,0x10
 100:	00a7e863          	bltu	a5,a0,110 <sub+0x64>
 104:	01071713          	slli	a4,a4,0x10
 108:	00e56533          	or	a0,a0,a4
 10c:	00008067          	ret
 110:	00a50513          	addi	a0,a0,10
 114:	fff70713          	addi	a4,a4,-1
 118:	01051513          	slli	a0,a0,0x10
 11c:	01071713          	slli	a4,a4,0x10
 120:	01055513          	srli	a0,a0,0x10
 124:	00e56533          	or	a0,a0,a4
 128:	00008067          	ret

0000012c <mul>:
 12c:	00855793          	srli	a5,a0,0x8
 130:	0ff57513          	zext.b	a0,a0
 134:	0ff7f793          	zext.b	a5,a5
 138:	00455613          	srli	a2,a0,0x4
 13c:	0047d513          	srli	a0,a5,0x4
 140:	00f7f793          	andi	a5,a5,15
 144:	2c060863          	beqz	a2,414 <mul+0x2e8>
 148:	00179793          	slli	a5,a5,0x1
 14c:	00900713          	li	a4,9
 150:	00151513          	slli	a0,a0,0x1
 154:	2cf76663          	bltu	a4,a5,420 <mul+0x2f4>
 158:	00100713          	li	a4,1
 15c:	2ae60c63          	beq	a2,a4,414 <mul+0x2e8>
 160:	00179793          	slli	a5,a5,0x1
 164:	00151693          	slli	a3,a0,0x1
 168:	01079793          	slli	a5,a5,0x10
 16c:	01069513          	slli	a0,a3,0x10
 170:	0107d793          	srli	a5,a5,0x10
 174:	00900713          	li	a4,9
 178:	01055513          	srli	a0,a0,0x10
 17c:	2af76c63          	bltu	a4,a5,434 <mul+0x308>
 180:	00200713          	li	a4,2
 184:	28e60863          	beq	a2,a4,414 <mul+0x2e8>
 188:	00179793          	slli	a5,a5,0x1
 18c:	00151513          	slli	a0,a0,0x1
 190:	01079793          	slli	a5,a5,0x10
 194:	01051513          	slli	a0,a0,0x10
 198:	0107d793          	srli	a5,a5,0x10
 19c:	00900713          	li	a4,9
 1a0:	01055513          	srli	a0,a0,0x10
 1a4:	2af76663          	bltu	a4,a5,450 <mul+0x324>
 1a8:	00300713          	li	a4,3
 1ac:	26e60463          	beq	a2,a4,414 <mul+0x2e8>
 1b0:	00179793          	slli	a5,a5,0x1
 1b4:	00151513          	slli	a0,a0,0x1
 1b8:	01079793          	slli	a5,a5,0x10
 1bc:	01051513          	slli	a0,a0,0x10
 1c0:	0107d793          	srli	a5,a5,0x10
 1c4:	00900713          	li	a4,9
 1c8:	01055513          	srli	a0,a0,0x10
 1cc:	2af76063          	bltu	a4,a5,46c <mul+0x340>
 1d0:	00400713          	li	a4,4
 1d4:	24e60063          	beq	a2,a4,414 <mul+0x2e8>
 1d8:	00179793          	slli	a5,a5,0x1
 1dc:	00151513          	slli	a0,a0,0x1
 1e0:	01079793          	slli	a5,a5,0x10
 1e4:	01051513          	slli	a0,a0,0x10
 1e8:	0107d793          	srli	a5,a5,0x10
 1ec:	00900713          	li	a4,9
 1f0:	01055513          	srli	a0,a0,0x10
 1f4:	00f77e63          	bgeu	a4,a5,210 <mul+0xe4>
 1f8:	00150513          	addi	a0,a0,1
 1fc:	ff678793          	addi	a5,a5,-10
 200:	01051513          	slli	a0,a0,0x10
 204:	01079793          	slli	a5,a5,0x10
 208:	01055513          	srli	a0,a0,0x10
 20c:	0107d793          	srli	a5,a5,0x10
 210:	00500713          	li	a4,5
 214:	20e60063          	beq	a2,a4,414 <mul+0x2e8>
 218:	00179793          	slli	a5,a5,0x1
 21c:	00151513          	slli	a0,a0,0x1
 220:	01079793          	slli	a5,a5,0x10
 224:	01051513          	slli	a0,a0,0x10
 228:	0107d793          	srli	a5,a5,0x10
 22c:	00900713          	li	a4,9
 230:	01055513          	srli	a0,a0,0x10
 234:	00f77e63          	bgeu	a4,a5,250 <mul+0x124>
 238:	00150513          	addi	a0,a0,1
 23c:	ff678793          	addi	a5,a5,-10
 240:	01051513          	slli	a0,a0,0x10
 244:	01079793          	slli	a5,a5,0x10
 248:	01055513          	srli	a0,a0,0x10
 24c:	0107d793          	srli	a5,a5,0x10
 250:	00600713          	li	a4,6
 254:	1ce60063          	beq	a2,a4,414 <mul+0x2e8>
 258:	00179793          	slli	a5,a5,0x1
 25c:	00151513          	slli	a0,a0,0x1
 260:	01079793          	slli	a5,a5,0x10
 264:	01051513          	slli	a0,a0,0x10
 268:	0107d793          	srli	a5,a5,0x10
 26c:	00900713          	li	a4,9
 270:	01055513          	srli	a0,a0,0x10
 274:	00f77e63          	bgeu	a4,a5,290 <mul+0x164>
 278:	00150513          	addi	a0,a0,1
 27c:	ff678793          	addi	a5,a5,-10
 280:	01051513          	slli	a0,a0,0x10
 284:	01079793          	slli	a5,a5,0x10
 288:	01055513          	srli	a0,a0,0x10
 28c:	0107d793          	srli	a5,a5,0x10
 290:	00700713          	li	a4,7
 294:	18e60063          	beq	a2,a4,414 <mul+0x2e8>
 298:	00179793          	slli	a5,a5,0x1
 29c:	00151513          	slli	a0,a0,0x1
 2a0:	01079793          	slli	a5,a5,0x10
 2a4:	01051513          	slli	a0,a0,0x10
 2a8:	0107d793          	srli	a5,a5,0x10
 2ac:	00900713          	li	a4,9
 2b0:	01055513          	srli	a0,a0,0x10
 2b4:	1cf76a63          	bltu	a4,a5,488 <mul+0x35c>
 2b8:	00800713          	li	a4,8
 2bc:	14e60c63          	beq	a2,a4,414 <mul+0x2e8>
 2c0:	00179793          	slli	a5,a5,0x1
 2c4:	00151513          	slli	a0,a0,0x1
 2c8:	01079793          	slli	a5,a5,0x10
 2cc:	01051513          	slli	a0,a0,0x10
 2d0:	0107d793          	srli	a5,a5,0x10
 2d4:	00900713          	li	a4,9
 2d8:	01055513          	srli	a0,a0,0x10
 2dc:	1cf76463          	bltu	a4,a5,4a4 <mul+0x378>
 2e0:	00900713          	li	a4,9
 2e4:	12e60863          	beq	a2,a4,414 <mul+0x2e8>
 2e8:	00179793          	slli	a5,a5,0x1
 2ec:	00151513          	slli	a0,a0,0x1
 2f0:	01079793          	slli	a5,a5,0x10
 2f4:	01051513          	slli	a0,a0,0x10
 2f8:	0107d793          	srli	a5,a5,0x10
 2fc:	01055513          	srli	a0,a0,0x10
 300:	1cf76063          	bltu	a4,a5,4c0 <mul+0x394>
 304:	00a00713          	li	a4,10
 308:	10e60663          	beq	a2,a4,414 <mul+0x2e8>
 30c:	00179793          	slli	a5,a5,0x1
 310:	00151513          	slli	a0,a0,0x1
 314:	01079793          	slli	a5,a5,0x10
 318:	01051513          	slli	a0,a0,0x10
 31c:	0107d793          	srli	a5,a5,0x10
 320:	00900713          	li	a4,9
 324:	01055513          	srli	a0,a0,0x10
 328:	1af76a63          	bltu	a4,a5,4dc <mul+0x3b0>
 32c:	00b00713          	li	a4,11
 330:	0ee60263          	beq	a2,a4,414 <mul+0x2e8>
 334:	00179793          	slli	a5,a5,0x1
 338:	00151513          	slli	a0,a0,0x1
 33c:	01079793          	slli	a5,a5,0x10
 340:	01051513          	slli	a0,a0,0x10
 344:	0107d793          	srli	a5,a5,0x10
 348:	00900713          	li	a4,9
 34c:	01055513          	srli	a0,a0,0x10
 350:	1af76463          	bltu	a4,a5,4f8 <mul+0x3cc>
 354:	00c00713          	li	a4,12
 358:	0ae60e63          	beq	a2,a4,414 <mul+0x2e8>
 35c:	00179793          	slli	a5,a5,0x1
 360:	00151513          	slli	a0,a0,0x1
 364:	01079793          	slli	a5,a5,0x10
 368:	01051513          	slli	a0,a0,0x10
 36c:	0107d793          	srli	a5,a5,0x10
 370:	00900713          	li	a4,9
 374:	01055513          	srli	a0,a0,0x10
 378:	00f77e63          	bgeu	a4,a5,394 <mul+0x268>
 37c:	00150513          	addi	a0,a0,1
 380:	ff678793          	addi	a5,a5,-10
 384:	01051513          	slli	a0,a0,0x10
 388:	01079793          	slli	a5,a5,0x10
 38c:	01055513          	srli	a0,a0,0x10
 390:	0107d793          	srli	a5,a5,0x10
 394:	00d00713          	li	a4,13
 398:	06e60e63          	beq	a2,a4,414 <mul+0x2e8>
 39c:	00179793          	slli	a5,a5,0x1
 3a0:	00151513          	slli	a0,a0,0x1
 3a4:	01079793          	slli	a5,a5,0x10
 3a8:	01051513          	slli	a0,a0,0x10
 3ac:	0107d793          	srli	a5,a5,0x10
 3b0:	00900713          	li	a4,9
 3b4:	01055513          	srli	a0,a0,0x10
 3b8:	00f77e63          	bgeu	a4,a5,3d4 <mul+0x2a8>
 3bc:	00150513          	addi	a0,a0,1
 3c0:	ff678793          	addi	a5,a5,-10
 3c4:	01051513          	slli	a0,a0,0x10
 3c8:	01079793          	slli	a5,a5,0x10
 3cc:	01055513          	srli	a0,a0,0x10
 3d0:	0107d793          	srli	a5,a5,0x10
 3d4:	00f00713          	li	a4,15
 3d8:	02e61e63          	bne	a2,a4,414 <mul+0x2e8>
 3dc:	00179793          	slli	a5,a5,0x1
 3e0:	00151513          	slli	a0,a0,0x1
 3e4:	01079793          	slli	a5,a5,0x10
 3e8:	01051513          	slli	a0,a0,0x10
 3ec:	0107d793          	srli	a5,a5,0x10
 3f0:	00900713          	li	a4,9
 3f4:	01055513          	srli	a0,a0,0x10
 3f8:	00f77e63          	bgeu	a4,a5,414 <mul+0x2e8>
 3fc:	00150513          	addi	a0,a0,1
 400:	ff678793          	addi	a5,a5,-10
 404:	01051513          	slli	a0,a0,0x10
 408:	01079793          	slli	a5,a5,0x10
 40c:	01055513          	srli	a0,a0,0x10
 410:	0107d793          	srli	a5,a5,0x10
 414:	01051513          	slli	a0,a0,0x10
 418:	00a7e533          	or	a0,a5,a0
 41c:	00008067          	ret
 420:	ff678793          	addi	a5,a5,-10
 424:	01079793          	slli	a5,a5,0x10
 428:	00150513          	addi	a0,a0,1
 42c:	0107d793          	srli	a5,a5,0x10
 430:	d29ff06f          	j	158 <mul+0x2c>
 434:	00150513          	addi	a0,a0,1
 438:	ff678793          	addi	a5,a5,-10
 43c:	01051513          	slli	a0,a0,0x10
 440:	01079793          	slli	a5,a5,0x10
 444:	01055513          	srli	a0,a0,0x10
 448:	0107d793          	srli	a5,a5,0x10
 44c:	d35ff06f          	j	180 <mul+0x54>
 450:	00150513          	addi	a0,a0,1
 454:	ff678793          	addi	a5,a5,-10
 458:	01051513          	slli	a0,a0,0x10
 45c:	01079793          	slli	a5,a5,0x10
 460:	01055513          	srli	a0,a0,0x10
 464:	0107d793          	srli	a5,a5,0x10
 468:	d41ff06f          	j	1a8 <mul+0x7c>
 46c:	00150513          	addi	a0,a0,1
 470:	ff678793          	addi	a5,a5,-10
 474:	01051513          	slli	a0,a0,0x10
 478:	01079793          	slli	a5,a5,0x10
 47c:	01055513          	srli	a0,a0,0x10
 480:	0107d793          	srli	a5,a5,0x10
 484:	d4dff06f          	j	1d0 <mul+0xa4>
 488:	00150513          	addi	a0,a0,1
 48c:	ff678793          	addi	a5,a5,-10
 490:	01051513          	slli	a0,a0,0x10
 494:	01079793          	slli	a5,a5,0x10
 498:	01055513          	srli	a0,a0,0x10
 49c:	0107d793          	srli	a5,a5,0x10
 4a0:	e19ff06f          	j	2b8 <mul+0x18c>
 4a4:	00150513          	addi	a0,a0,1
 4a8:	ff678793          	addi	a5,a5,-10
 4ac:	01051513          	slli	a0,a0,0x10
 4b0:	01079793          	slli	a5,a5,0x10
 4b4:	01055513          	srli	a0,a0,0x10
 4b8:	0107d793          	srli	a5,a5,0x10
 4bc:	e25ff06f          	j	2e0 <mul+0x1b4>
 4c0:	00150513          	addi	a0,a0,1
 4c4:	ff678793          	addi	a5,a5,-10
 4c8:	01051513          	slli	a0,a0,0x10
 4cc:	01079793          	slli	a5,a5,0x10
 4d0:	01055513          	srli	a0,a0,0x10
 4d4:	0107d793          	srli	a5,a5,0x10
 4d8:	e2dff06f          	j	304 <mul+0x1d8>
 4dc:	00150513          	addi	a0,a0,1
 4e0:	ff678793          	addi	a5,a5,-10
 4e4:	01051513          	slli	a0,a0,0x10
 4e8:	01079793          	slli	a5,a5,0x10
 4ec:	01055513          	srli	a0,a0,0x10
 4f0:	0107d793          	srli	a5,a5,0x10
 4f4:	e39ff06f          	j	32c <mul+0x200>
 4f8:	00150513          	addi	a0,a0,1
 4fc:	ff678793          	addi	a5,a5,-10
 500:	01051513          	slli	a0,a0,0x10
 504:	01079793          	slli	a5,a5,0x10
 508:	01055513          	srli	a0,a0,0x10
 50c:	0107d793          	srli	a5,a5,0x10
 510:	e45ff06f          	j	354 <mul+0x228>

00000514 <div>:
 514:	00855713          	srli	a4,a0,0x8
 518:	0ff57513          	zext.b	a0,a0
 51c:	00455793          	srli	a5,a0,0x4
 520:	0ff77693          	zext.b	a3,a4
 524:	00f77713          	andi	a4,a4,15
 528:	0046d513          	srli	a0,a3,0x4
 52c:	40f75733          	sra	a4,a4,a5
 530:	40f55533          	sra	a0,a0,a5
 534:	01071713          	slli	a4,a4,0x10
 538:	01075713          	srli	a4,a4,0x10
 53c:	01051513          	slli	a0,a0,0x10
 540:	00a76533          	or	a0,a4,a0
 544:	00008067          	ret

00000548 <lfsr32>:
 548:	00355713          	srli	a4,a0,0x3
 54c:	00255793          	srli	a5,a0,0x2
 550:	00e7c7b3          	xor	a5,a5,a4
 554:	00a7c7b3          	xor	a5,a5,a0
 558:	00555713          	srli	a4,a0,0x5
 55c:	00e7c7b3          	xor	a5,a5,a4
 560:	01f79793          	slli	a5,a5,0x1f
 564:	00155513          	srli	a0,a0,0x1
 568:	00f56533          	or	a0,a0,a5
 56c:	00008067          	ret

Disassembly of section .text.startup:

00000570 <main>:
 570:	fec10113          	addi	sp,sp,-20 # ffec <edata+0xefec>
 574:	00112823          	sw	ra,16(sp)
 578:	072102b7          	lui	t0,0x7210
 57c:	fffff3b7          	lui	t2,0xfffff
 580:	000010b7          	lui	ra,0x1
 584:	000105b7          	lui	a1,0x10
 588:	00812623          	sw	s0,12(sp)
 58c:	00912423          	sw	s1,8(sp)
 590:	48728293          	addi	t0,t0,1159 # 7210487 <edata+0x720f487>
 594:	aa408093          	addi	ra,ra,-1372 # aa4 <main+0x534>
 598:	07038393          	addi	t2,t2,112 # fffff070 <edata+0xffffe070>
 59c:	00500613          	li	a2,5
 5a0:	fff58593          	addi	a1,a1,-1 # ffff <edata+0xefff>
 5a4:	00900313          	li	t1,9
 5a8:	0003a703          	lw	a4,0(t2)
 5ac:	01575693          	srli	a3,a4,0x15
 5b0:	00875793          	srli	a5,a4,0x8
 5b4:	0076f693          	andi	a3,a3,7
 5b8:	0ff77713          	zext.b	a4,a4
 5bc:	0ff7f793          	zext.b	a5,a5
 5c0:	04d66063          	bltu	a2,a3,600 <main+0x90>
 5c4:	00269693          	slli	a3,a3,0x2
 5c8:	00d086b3          	add	a3,ra,a3
 5cc:	0006a683          	lw	a3,0(a3)
 5d0:	00068067          	jr	a3
 5d4:	0032d713          	srli	a4,t0,0x3
 5d8:	0022d793          	srli	a5,t0,0x2
 5dc:	00e7c7b3          	xor	a5,a5,a4
 5e0:	0057c7b3          	xor	a5,a5,t0
 5e4:	0052d713          	srli	a4,t0,0x5
 5e8:	00e7c7b3          	xor	a5,a5,a4
 5ec:	0012d293          	srli	t0,t0,0x1
 5f0:	01f79793          	slli	a5,a5,0x1f
 5f4:	0057e7b3          	or	a5,a5,t0
 5f8:	00f12223          	sw	a5,4(sp)
 5fc:	00412283          	lw	t0,4(sp)
 600:	00412783          	lw	a5,4(sp)
 604:	0107d713          	srli	a4,a5,0x10
 608:	ff670693          	addi	a3,a4,-10
 60c:	01069693          	slli	a3,a3,0x10
 610:	0106d693          	srli	a3,a3,0x10
 614:	00d66463          	bltu	a2,a3,61c <main+0xac>
 618:	0106e713          	ori	a4,a3,16
 61c:	01071713          	slli	a4,a4,0x10
 620:	00b7f7b3          	and	a5,a5,a1
 624:	00e7e7b3          	or	a5,a5,a4
 628:	fffff737          	lui	a4,0xfffff
 62c:	00f72023          	sw	a5,0(a4) # fffff000 <edata+0xffffe000>
 630:	f79ff06f          	j	5a8 <main+0x38>
 634:	00475693          	srli	a3,a4,0x4
 638:	00f7f713          	andi	a4,a5,15
 63c:	40d75733          	sra	a4,a4,a3
 640:	0047d793          	srli	a5,a5,0x4
 644:	01071713          	slli	a4,a4,0x10
 648:	01075713          	srli	a4,a4,0x10
 64c:	40d7d7b3          	sra	a5,a5,a3
 650:	01079793          	slli	a5,a5,0x10
 654:	00b77733          	and	a4,a4,a1
 658:	00f767b3          	or	a5,a4,a5
 65c:	00f12223          	sw	a5,4(sp)
 660:	fa1ff06f          	j	600 <main+0x90>
 664:	00475713          	srli	a4,a4,0x4
 668:	0047d693          	srli	a3,a5,0x4
 66c:	00f7f793          	andi	a5,a5,15
 670:	36070063          	beqz	a4,9d0 <main+0x460>
 674:	00179793          	slli	a5,a5,0x1
 678:	00169693          	slli	a3,a3,0x1
 67c:	00f37a63          	bgeu	t1,a5,690 <main+0x120>
 680:	ff678793          	addi	a5,a5,-10
 684:	01079793          	slli	a5,a5,0x10
 688:	00168693          	addi	a3,a3,1
 68c:	0107d793          	srli	a5,a5,0x10
 690:	00100513          	li	a0,1
 694:	32a70e63          	beq	a4,a0,9d0 <main+0x460>
 698:	00179793          	slli	a5,a5,0x1
 69c:	00169693          	slli	a3,a3,0x1
 6a0:	01079793          	slli	a5,a5,0x10
 6a4:	01069693          	slli	a3,a3,0x10
 6a8:	0107d793          	srli	a5,a5,0x10
 6ac:	0106d693          	srli	a3,a3,0x10
 6b0:	00f37e63          	bgeu	t1,a5,6cc <main+0x15c>
 6b4:	00168693          	addi	a3,a3,1
 6b8:	ff678793          	addi	a5,a5,-10
 6bc:	01069693          	slli	a3,a3,0x10
 6c0:	01079793          	slli	a5,a5,0x10
 6c4:	0106d693          	srli	a3,a3,0x10
 6c8:	0107d793          	srli	a5,a5,0x10
 6cc:	00200513          	li	a0,2
 6d0:	30a70063          	beq	a4,a0,9d0 <main+0x460>
 6d4:	00179793          	slli	a5,a5,0x1
 6d8:	00169693          	slli	a3,a3,0x1
 6dc:	01079793          	slli	a5,a5,0x10
 6e0:	01069693          	slli	a3,a3,0x10
 6e4:	0107d793          	srli	a5,a5,0x10
 6e8:	0106d693          	srli	a3,a3,0x10
 6ec:	00f37e63          	bgeu	t1,a5,708 <main+0x198>
 6f0:	00168693          	addi	a3,a3,1
 6f4:	ff678793          	addi	a5,a5,-10
 6f8:	01069693          	slli	a3,a3,0x10
 6fc:	01079793          	slli	a5,a5,0x10
 700:	0106d693          	srli	a3,a3,0x10
 704:	0107d793          	srli	a5,a5,0x10
 708:	00300513          	li	a0,3
 70c:	2ca70263          	beq	a4,a0,9d0 <main+0x460>
 710:	00179793          	slli	a5,a5,0x1
 714:	00169693          	slli	a3,a3,0x1
 718:	01079793          	slli	a5,a5,0x10
 71c:	01069693          	slli	a3,a3,0x10
 720:	0107d793          	srli	a5,a5,0x10
 724:	0106d693          	srli	a3,a3,0x10
 728:	00f37e63          	bgeu	t1,a5,744 <main+0x1d4>
 72c:	00168693          	addi	a3,a3,1
 730:	ff678793          	addi	a5,a5,-10
 734:	01069693          	slli	a3,a3,0x10
 738:	01079793          	slli	a5,a5,0x10
 73c:	0106d693          	srli	a3,a3,0x10
 740:	0107d793          	srli	a5,a5,0x10
 744:	00400513          	li	a0,4
 748:	28a70463          	beq	a4,a0,9d0 <main+0x460>
 74c:	00179793          	slli	a5,a5,0x1
 750:	00169693          	slli	a3,a3,0x1
 754:	01079793          	slli	a5,a5,0x10
 758:	01069693          	slli	a3,a3,0x10
 75c:	0107d793          	srli	a5,a5,0x10
 760:	0106d693          	srli	a3,a3,0x10
 764:	00f37e63          	bgeu	t1,a5,780 <main+0x210>
 768:	00168693          	addi	a3,a3,1
 76c:	ff678793          	addi	a5,a5,-10
 770:	01069693          	slli	a3,a3,0x10
 774:	01079793          	slli	a5,a5,0x10
 778:	0106d693          	srli	a3,a3,0x10
 77c:	0107d793          	srli	a5,a5,0x10
 780:	24c70863          	beq	a4,a2,9d0 <main+0x460>
 784:	00179793          	slli	a5,a5,0x1
 788:	00169693          	slli	a3,a3,0x1
 78c:	01079793          	slli	a5,a5,0x10
 790:	01069693          	slli	a3,a3,0x10
 794:	0107d793          	srli	a5,a5,0x10
 798:	0106d693          	srli	a3,a3,0x10
 79c:	00f37e63          	bgeu	t1,a5,7b8 <main+0x248>
 7a0:	00168693          	addi	a3,a3,1
 7a4:	ff678793          	addi	a5,a5,-10
 7a8:	01069693          	slli	a3,a3,0x10
 7ac:	01079793          	slli	a5,a5,0x10
 7b0:	0106d693          	srli	a3,a3,0x10
 7b4:	0107d793          	srli	a5,a5,0x10
 7b8:	00600513          	li	a0,6
 7bc:	20a70a63          	beq	a4,a0,9d0 <main+0x460>
 7c0:	00179793          	slli	a5,a5,0x1
 7c4:	00169693          	slli	a3,a3,0x1
 7c8:	01079793          	slli	a5,a5,0x10
 7cc:	01069693          	slli	a3,a3,0x10
 7d0:	0107d793          	srli	a5,a5,0x10
 7d4:	0106d693          	srli	a3,a3,0x10
 7d8:	00f37e63          	bgeu	t1,a5,7f4 <main+0x284>
 7dc:	00168693          	addi	a3,a3,1
 7e0:	ff678793          	addi	a5,a5,-10
 7e4:	01069693          	slli	a3,a3,0x10
 7e8:	01079793          	slli	a5,a5,0x10
 7ec:	0106d693          	srli	a3,a3,0x10
 7f0:	0107d793          	srli	a5,a5,0x10
 7f4:	00700513          	li	a0,7
 7f8:	1ca70c63          	beq	a4,a0,9d0 <main+0x460>
 7fc:	00179793          	slli	a5,a5,0x1
 800:	00169693          	slli	a3,a3,0x1
 804:	01079793          	slli	a5,a5,0x10
 808:	01069693          	slli	a3,a3,0x10
 80c:	0107d793          	srli	a5,a5,0x10
 810:	0106d693          	srli	a3,a3,0x10
 814:	00f37e63          	bgeu	t1,a5,830 <main+0x2c0>
 818:	00168693          	addi	a3,a3,1
 81c:	ff678793          	addi	a5,a5,-10
 820:	01069693          	slli	a3,a3,0x10
 824:	01079793          	slli	a5,a5,0x10
 828:	0106d693          	srli	a3,a3,0x10
 82c:	0107d793          	srli	a5,a5,0x10
 830:	00800513          	li	a0,8
 834:	18a70e63          	beq	a4,a0,9d0 <main+0x460>
 838:	00179793          	slli	a5,a5,0x1
 83c:	00169693          	slli	a3,a3,0x1
 840:	01079793          	slli	a5,a5,0x10
 844:	01069693          	slli	a3,a3,0x10
 848:	0107d793          	srli	a5,a5,0x10
 84c:	0106d693          	srli	a3,a3,0x10
 850:	00f37e63          	bgeu	t1,a5,86c <main+0x2fc>
 854:	00168693          	addi	a3,a3,1
 858:	ff678793          	addi	a5,a5,-10
 85c:	01069693          	slli	a3,a3,0x10
 860:	01079793          	slli	a5,a5,0x10
 864:	0106d693          	srli	a3,a3,0x10
 868:	0107d793          	srli	a5,a5,0x10
 86c:	16670263          	beq	a4,t1,9d0 <main+0x460>
 870:	00179793          	slli	a5,a5,0x1
 874:	00169693          	slli	a3,a3,0x1
 878:	01079793          	slli	a5,a5,0x10
 87c:	01069693          	slli	a3,a3,0x10
 880:	0107d793          	srli	a5,a5,0x10
 884:	0106d693          	srli	a3,a3,0x10
 888:	00f37e63          	bgeu	t1,a5,8a4 <main+0x334>
 88c:	00168693          	addi	a3,a3,1
 890:	ff678793          	addi	a5,a5,-10
 894:	01069693          	slli	a3,a3,0x10
 898:	01079793          	slli	a5,a5,0x10
 89c:	0106d693          	srli	a3,a3,0x10
 8a0:	0107d793          	srli	a5,a5,0x10
 8a4:	00a00513          	li	a0,10
 8a8:	12a70463          	beq	a4,a0,9d0 <main+0x460>
 8ac:	00179793          	slli	a5,a5,0x1
 8b0:	00169693          	slli	a3,a3,0x1
 8b4:	01079793          	slli	a5,a5,0x10
 8b8:	01069693          	slli	a3,a3,0x10
 8bc:	0107d793          	srli	a5,a5,0x10
 8c0:	0106d693          	srli	a3,a3,0x10
 8c4:	00f37e63          	bgeu	t1,a5,8e0 <main+0x370>
 8c8:	00168693          	addi	a3,a3,1
 8cc:	ff678793          	addi	a5,a5,-10
 8d0:	01069693          	slli	a3,a3,0x10
 8d4:	01079793          	slli	a5,a5,0x10
 8d8:	0106d693          	srli	a3,a3,0x10
 8dc:	0107d793          	srli	a5,a5,0x10
 8e0:	00b00513          	li	a0,11
 8e4:	0ea70663          	beq	a4,a0,9d0 <main+0x460>
 8e8:	00179793          	slli	a5,a5,0x1
 8ec:	00169693          	slli	a3,a3,0x1
 8f0:	01079793          	slli	a5,a5,0x10
 8f4:	01069693          	slli	a3,a3,0x10
 8f8:	0107d793          	srli	a5,a5,0x10
 8fc:	0106d693          	srli	a3,a3,0x10
 900:	00f37e63          	bgeu	t1,a5,91c <main+0x3ac>
 904:	00168693          	addi	a3,a3,1
 908:	ff678793          	addi	a5,a5,-10
 90c:	01069693          	slli	a3,a3,0x10
 910:	01079793          	slli	a5,a5,0x10
 914:	0106d693          	srli	a3,a3,0x10
 918:	0107d793          	srli	a5,a5,0x10
 91c:	00c00513          	li	a0,12
 920:	0aa70863          	beq	a4,a0,9d0 <main+0x460>
 924:	00179793          	slli	a5,a5,0x1
 928:	00169693          	slli	a3,a3,0x1
 92c:	01079793          	slli	a5,a5,0x10
 930:	01069693          	slli	a3,a3,0x10
 934:	0107d793          	srli	a5,a5,0x10
 938:	0106d693          	srli	a3,a3,0x10
 93c:	00f37e63          	bgeu	t1,a5,958 <main+0x3e8>
 940:	00168693          	addi	a3,a3,1
 944:	ff678793          	addi	a5,a5,-10
 948:	01069693          	slli	a3,a3,0x10
 94c:	01079793          	slli	a5,a5,0x10
 950:	0106d693          	srli	a3,a3,0x10
 954:	0107d793          	srli	a5,a5,0x10
 958:	00d00513          	li	a0,13
 95c:	06a70a63          	beq	a4,a0,9d0 <main+0x460>
 960:	00179793          	slli	a5,a5,0x1
 964:	00169693          	slli	a3,a3,0x1
 968:	01079793          	slli	a5,a5,0x10
 96c:	01069693          	slli	a3,a3,0x10
 970:	0107d793          	srli	a5,a5,0x10
 974:	0106d693          	srli	a3,a3,0x10
 978:	00f37e63          	bgeu	t1,a5,994 <main+0x424>
 97c:	00168693          	addi	a3,a3,1
 980:	ff678793          	addi	a5,a5,-10
 984:	01069693          	slli	a3,a3,0x10
 988:	01079793          	slli	a5,a5,0x10
 98c:	0106d693          	srli	a3,a3,0x10
 990:	0107d793          	srli	a5,a5,0x10
 994:	00f00513          	li	a0,15
 998:	02a71c63          	bne	a4,a0,9d0 <main+0x460>
 99c:	00179793          	slli	a5,a5,0x1
 9a0:	00169693          	slli	a3,a3,0x1
 9a4:	01079793          	slli	a5,a5,0x10
 9a8:	01069693          	slli	a3,a3,0x10
 9ac:	0107d793          	srli	a5,a5,0x10
 9b0:	0106d693          	srli	a3,a3,0x10
 9b4:	00f37e63          	bgeu	t1,a5,9d0 <main+0x460>
 9b8:	00168693          	addi	a3,a3,1
 9bc:	ff678793          	addi	a5,a5,-10
 9c0:	01069693          	slli	a3,a3,0x10
 9c4:	01079793          	slli	a5,a5,0x10
 9c8:	0106d693          	srli	a3,a3,0x10
 9cc:	0107d793          	srli	a5,a5,0x10
 9d0:	ffff0737          	lui	a4,0xffff0
 9d4:	00e47733          	and	a4,s0,a4
 9d8:	00f76433          	or	s0,a4,a5
 9dc:	01069693          	slli	a3,a3,0x10
 9e0:	00b477b3          	and	a5,s0,a1
 9e4:	00d7e433          	or	s0,a5,a3
 9e8:	00812223          	sw	s0,4(sp)
 9ec:	c15ff06f          	j	600 <main+0x90>
 9f0:	00f7f693          	andi	a3,a5,15
 9f4:	00f77513          	andi	a0,a4,15
 9f8:	0047d793          	srli	a5,a5,0x4
 9fc:	00475713          	srli	a4,a4,0x4
 a00:	00a686b3          	add	a3,a3,a0
 a04:	00e787b3          	add	a5,a5,a4
 a08:	00d37a63          	bgeu	t1,a3,a1c <main+0x4ac>
 a0c:	ff668693          	addi	a3,a3,-10
 a10:	01069693          	slli	a3,a3,0x10
 a14:	00178793          	addi	a5,a5,1
 a18:	0106d693          	srli	a3,a3,0x10
 a1c:	01079793          	slli	a5,a5,0x10
 a20:	00b6f6b3          	and	a3,a3,a1
 a24:	00f6e6b3          	or	a3,a3,a5
 a28:	00d12223          	sw	a3,4(sp)
 a2c:	bd5ff06f          	j	600 <main+0x90>
 a30:	00475693          	srli	a3,a4,0x4
 a34:	00d12023          	sw	a3,0(sp)
 a38:	0047d513          	srli	a0,a5,0x4
 a3c:	00f77493          	andi	s1,a4,15
 a40:	00f7f693          	andi	a3,a5,15
 a44:	00e7fe63          	bgeu	a5,a4,a60 <main+0x4f0>
 a48:	00068713          	mv	a4,a3
 a4c:	00050793          	mv	a5,a0
 a50:	00048693          	mv	a3,s1
 a54:	00012503          	lw	a0,0(sp)
 a58:	00070493          	mv	s1,a4
 a5c:	00f12023          	sw	a5,0(sp)
 a60:	00012783          	lw	a5,0(sp)
 a64:	409686b3          	sub	a3,a3,s1
 a68:	01069693          	slli	a3,a3,0x10
 a6c:	40f50533          	sub	a0,a0,a5
 a70:	01051513          	slli	a0,a0,0x10
 a74:	0106d693          	srli	a3,a3,0x10
 a78:	01055513          	srli	a0,a0,0x10
 a7c:	00d37a63          	bgeu	t1,a3,a90 <main+0x520>
 a80:	00a68693          	addi	a3,a3,10
 a84:	01069693          	slli	a3,a3,0x10
 a88:	0106d693          	srli	a3,a3,0x10
 a8c:	fff50513          	addi	a0,a0,-1
 a90:	01051513          	slli	a0,a0,0x10
 a94:	00b6f6b3          	and	a3,a3,a1
 a98:	00a6e6b3          	or	a3,a3,a0
 a9c:	00d12223          	sw	a3,4(sp)
 aa0:	b61ff06f          	j	600 <main+0x90>
